target datalayout = "e-m:e-p270:32:32-p271:32:32-p272:64:64-i64:64-i128:128-f80:128-n8:16:32:64-S128"
target triple = "x86_64-pc-linux-gnu"

%struct.pmix_pointer_array_t = type { %struct.pmix_object_t, i32, i32, i32, i32, i32, ptr, ptr }
%struct.pmix_object_t = type { %union.pthread_mutex_t, ptr, i32, %struct.pmix_tma }
%union.pthread_mutex_t = type { %struct.__pthread_mutex_s }
%struct.__pthread_mutex_s = type { i32, i32, i32, i32, i32, i16, i16, %struct.__pthread_internal_list }
%struct.__pthread_internal_list = type { ptr, ptr }
%struct.pmix_tma = type { ptr, ptr, ptr, ptr, ptr, ptr, ptr, ptr }
%struct.pmix_psquash_base_module_t = type { ptr, i8, ptr, ptr, ptr, ptr, ptr }
%struct.pmix_bfrop_type_info_t = type { %struct.pmix_object_t, i16, ptr, ptr, ptr, ptr, ptr }

@pmix_psquash = external global %struct.pmix_psquash_base_module_t, align 8

; Function Attrs: inlinehint nounwind uwtable
define internal ptr @pmix_pointer_array_get_item(ptr noundef %0, i32 noundef %1) #3 {
  %3 = alloca ptr, align 8
  %4 = alloca ptr, align 8
  %5 = alloca i32, align 4
  %6 = alloca ptr, align 8
  %7 = alloca i32, align 4
  store ptr %0, ptr %4, align 8, !tbaa !53
  store i32 %1, ptr %5, align 4, !tbaa !20
  call void @llvm.lifetime.start.p0(i64 8, ptr %6) #12
  %8 = load i32, ptr %5, align 4, !tbaa !20
  %9 = icmp sgt i32 0, %8
  br i1 %9, label %16, label %10

10:                                               ; preds = %2
  %11 = load ptr, ptr %4, align 8, !tbaa !53
  %12 = getelementptr inbounds nuw %struct.pmix_pointer_array_t, ptr %11, i32 0, i32 3
  %13 = load i32, ptr %12, align 8, !tbaa !101
  %14 = load i32, ptr %5, align 4, !tbaa !20
  %15 = icmp sle i32 %13, %14
  br label %16

16:                                               ; preds = %10, %2
  %17 = phi i1 [ true, %2 ], [ %15, %10 ]
  %18 = xor i1 %17, true
  %19 = xor i1 %18, true
  %20 = zext i1 %19 to i32
  %21 = sext i32 %20 to i64
  %22 = call i64 @llvm.expect.i64(i64 %21, i64 0)
  %23 = icmp ne i64 %22, 0
  br i1 %23, label %24, label %25

24:                                               ; preds = %16
  store ptr null, ptr %3, align 8
  store i32 1, ptr %7, align 4
  br label %34

25:                                               ; preds = %16
  %26 = load ptr, ptr %4, align 8, !tbaa !53
  %27 = getelementptr inbounds nuw %struct.pmix_pointer_array_t, ptr %26, i32 0, i32 7
  %28 = load ptr, ptr %27, align 8, !tbaa !102
  %29 = load i32, ptr %5, align 4, !tbaa !20
  %30 = sext i32 %29 to i64
  %31 = getelementptr inbounds ptr, ptr %28, i64 %30
  %32 = load ptr, ptr %31, align 8, !tbaa !3
  store ptr %32, ptr %6, align 8, !tbaa !3
  %33 = load ptr, ptr %6, align 8, !tbaa !3
  store ptr %33, ptr %3, align 8
  store i32 1, ptr %7, align 4
  br label %34

34:                                               ; preds = %25, %24
  call void @llvm.lifetime.end.p0(i64 8, ptr %6) #12
  %35 = load ptr, ptr %3, align 8
  ret ptr %35
}

; Function Attrs: nounwind uwtable
define internal i32 @pmix4_bfrops_base_pack_sizet(ptr noundef %0, ptr noundef %1, ptr noundef %2, i32 noundef %3, i16 noundef zeroext %4) #0 {
  %6 = alloca i32, align 4
  %7 = alloca ptr, align 8
  %8 = alloca ptr, align 8
  %9 = alloca ptr, align 8
  %10 = alloca i32, align 4
  %11 = alloca i16, align 2
  %12 = alloca i32, align 4
  %13 = alloca i32, align 4
  %14 = alloca ptr, align 8
  store ptr %0, ptr %7, align 8, !tbaa !53
  store ptr %1, ptr %8, align 8, !tbaa !3
  store ptr %2, ptr %9, align 8, !tbaa !3
  store i32 %3, ptr %10, align 4, !tbaa !20
  store i16 %4, ptr %11, align 2, !tbaa !31
  call void @llvm.lifetime.start.p0(i64 4, ptr %12) #12
  %15 = load i8, ptr getelementptr inbounds nuw (%struct.pmix_psquash_base_module_t, ptr @pmix_psquash, i32 0, i32 1), align 8, !tbaa !55, !range !58, !noundef !59
  %16 = trunc i8 %15 to i1
  %17 = zext i1 %16 to i32
  %18 = icmp eq i32 0, %17
  br i1 %18, label %19, label %27

19:                                               ; preds = %5
  %20 = load ptr, ptr %7, align 8, !tbaa !53
  %21 = load ptr, ptr %8, align 8, !tbaa !3
  %22 = call i32 @pmix_bfrop_store_data_type(ptr noundef %20, ptr noundef %21, i16 noundef zeroext 15)
  store i32 %22, ptr %12, align 4, !tbaa !20
  %23 = icmp ne i32 0, %22
  br i1 %23, label %24, label %26

24:                                               ; preds = %19
  %25 = load i32, ptr %12, align 4, !tbaa !20
  store i32 %25, ptr %6, align 4
  store i32 1, ptr %13, align 4
  br label %47

26:                                               ; preds = %19
  br label %27

27:                                               ; preds = %26, %5
  br label %28

28:                                               ; preds = %27
  call void @llvm.lifetime.start.p0(i64 8, ptr %14) #12
  %29 = load ptr, ptr %7, align 8, !tbaa !53
  %30 = call ptr @pmix_pointer_array_get_item(ptr noundef %29, i32 noundef 15)
  store ptr %30, ptr %14, align 8, !tbaa !3
  %31 = load ptr, ptr %14, align 8, !tbaa !3
  %32 = icmp eq ptr null, %31
  br i1 %32, label %33, label %34

33:                                               ; preds = %28
  store i32 -16, ptr %12, align 4, !tbaa !20
  br label %43

34:                                               ; preds = %28
  %35 = load ptr, ptr %14, align 8, !tbaa !3
  %36 = getelementptr inbounds nuw %struct.pmix_bfrop_type_info_t, ptr %35, i32 0, i32 3
  %37 = load ptr, ptr %36, align 8, !tbaa !16
  %38 = load ptr, ptr %7, align 8, !tbaa !53
  %39 = load ptr, ptr %8, align 8, !tbaa !3
  %40 = load ptr, ptr %9, align 8, !tbaa !3
  %41 = load i32, ptr %10, align 4, !tbaa !20
  %42 = call i32 %37(ptr noundef %38, ptr noundef %39, ptr noundef %40, i32 noundef %41, i16 noundef zeroext 15)
  store i32 %42, ptr %12, align 4, !tbaa !20
  br label %43

43:                                               ; preds = %34, %33
  call void @llvm.lifetime.end.p0(i64 8, ptr %14) #12
  br label %44

44:                                               ; preds = %43
  br label %45

45:                                               ; preds = %44
  %46 = load i32, ptr %12, align 4, !tbaa !20
  store i32 %46, ptr %6, align 4
  store i32 1, ptr %13, align 4
  br label %47

47:                                               ; preds = %45, %24
  call void @llvm.lifetime.end.p0(i64 4, ptr %12) #12
  %48 = load i32, ptr %6, align 4
  ret i32 %48
}